; Function Attrs: mustprogress uwtable
define void @_ZN7openvdb5v11_011compression16PagedInputStream4readERSt10unique_ptrINS1_10PageHandleESt14default_deleteIS4_EElb(ptr nocapture noundef nonnull align 8 dereferenceable(33) %this, ptr nocapture noundef nonnull readonly align 8 dereferenceable(8) %pageHandle, i64 noundef %n, i1 noundef zeroext %delayed) local_unnamed_addr #4 align 2 {
entry:
  %0 = load i32, ptr %this, align 8
  %mUncompressedBytes = getelementptr inbounds i8, ptr %this, i64 4
  %1 = load i32, ptr %mUncompressedBytes, align 4
  %cmp = icmp eq i32 %0, %1
  br i1 %cmp, label %if.then, label %if.end

if.then:                                          ; preds = %entry
  %2 = load ptr, ptr %pageHandle, align 8
  %3 = load ptr, ptr %2, align 8
  %4 = load ptr, ptr %3, align 8
  %uncompressedBytes.i = getelementptr inbounds i8, ptr %4, i64 48
  %5 = load i64, ptr %uncompressedBytes.i, align 8
  %conv = trunc i64 %5 to i32
  store i32 %conv, ptr %mUncompressedBytes, align 4
  %mIs = getelementptr inbounds i8, ptr %this, i64 8
  %6 = load ptr, ptr %mIs, align 8
  tail call void @_ZN7openvdb5v11_011compression4Page11readBuffersERSib(ptr noundef nonnull align 8 dereferenceable(17) %3, ptr noundef nonnull align 8 dereferenceable(16) %6, i1 noundef zeroext %delayed)
  br label %if.end

if.end:                                           ; preds = %if.then, %entry
  %7 = phi i32 [ 0, %if.then ], [ %0, %entry ]
  %conv6 = trunc i64 %n to i32
  %add = add nsw i32 %7, %conv6
  store i32 %add, ptr %this, align 8
  ret void
}